target datalayout = "e-m:e-p270:32:32-p271:32:32-p272:64:64-i64:64-i128:128-f80:128-n8:16:32:64-S128"
target triple = "x86_64-pc-linux-gnu"

%"class.OpenColorIO_v2_5dev::ExponentOpData" = type { %"class.OpenColorIO_v2_5dev::OpData", [4 x double] }
%"class.OpenColorIO_v2_5dev::OpData" = type { ptr, %"class.std::mutex", %"class.OpenColorIO_v2_5dev::FormatMetadataImpl" }
%"class.std::mutex" = type { %"class.std::__mutex_base" }
%"class.std::__mutex_base" = type { %union.pthread_mutex_t }
%union.pthread_mutex_t = type { %struct.__pthread_mutex_s }
%struct.__pthread_mutex_s = type { i32, i32, i32, i32, i32, i16, i16, %struct.__pthread_internal_list }
%struct.__pthread_internal_list = type { ptr, ptr }
%"class.OpenColorIO_v2_5dev::FormatMetadataImpl" = type { %"class.OpenColorIO_v2_5dev::FormatMetadata", %"class.std::__cxx11::basic_string", %"class.std::__cxx11::basic_string", %"class.std::vector", %"class.std::vector.3" }
%"class.OpenColorIO_v2_5dev::FormatMetadata" = type { ptr }
%"class.std::__cxx11::basic_string" = type { %"struct.std::__cxx11::basic_string<char>::_Alloc_hider", i64, %union.anon }
%"struct.std::__cxx11::basic_string<char>::_Alloc_hider" = type { ptr }
%union.anon = type { i64, [8 x i8] }
%"class.std::vector" = type { %"struct.std::_Vector_base" }
%"struct.std::_Vector_base" = type { %"struct.std::_Vector_base<std::pair<std::__cxx11::basic_string<char>, std::__cxx11::basic_string<char>>, std::allocator<std::pair<std::__cxx11::basic_string<char>, std::__cxx11::basic_string<char>>>>::_Vector_impl" }
%"struct.std::_Vector_base<std::pair<std::__cxx11::basic_string<char>, std::__cxx11::basic_string<char>>, std::allocator<std::pair<std::__cxx11::basic_string<char>, std::__cxx11::basic_string<char>>>>::_Vector_impl" = type { %"struct.std::_Vector_base<std::pair<std::__cxx11::basic_string<char>, std::__cxx11::basic_string<char>>, std::allocator<std::pair<std::__cxx11::basic_string<char>, std::__cxx11::basic_string<char>>>>::_Vector_impl_data" }
%"struct.std::_Vector_base<std::pair<std::__cxx11::basic_string<char>, std::__cxx11::basic_string<char>>, std::allocator<std::pair<std::__cxx11::basic_string<char>, std::__cxx11::basic_string<char>>>>::_Vector_impl_data" = type { ptr, ptr, ptr }
%"class.std::vector.3" = type { %"struct.std::_Vector_base.4" }
%"struct.std::_Vector_base.4" = type { %"struct.std::_Vector_base<OpenColorIO_v2_5dev::FormatMetadataImpl, std::allocator<OpenColorIO_v2_5dev::FormatMetadataImpl>>::_Vector_impl" }
%"struct.std::_Vector_base<OpenColorIO_v2_5dev::FormatMetadataImpl, std::allocator<OpenColorIO_v2_5dev::FormatMetadataImpl>>::_Vector_impl" = type { %"struct.std::_Vector_base<OpenColorIO_v2_5dev::FormatMetadataImpl, std::allocator<OpenColorIO_v2_5dev::FormatMetadataImpl>>::_Vector_impl_data" }
%"struct.std::_Vector_base<OpenColorIO_v2_5dev::FormatMetadataImpl, std::allocator<OpenColorIO_v2_5dev::FormatMetadataImpl>>::_Vector_impl_data" = type { ptr, ptr, ptr }
%"class.std::__shared_count" = type { ptr }
%"class.std::shared_ptr.29" = type { %"class.std::__shared_ptr.30" }
%"class.std::__shared_ptr.30" = type { ptr, %"class.std::__shared_count" }
%"class.OpenColorIO_v2_5dev::(anonymous namespace)::ExponentOpCPU" = type { %"class.OpenColorIO_v2_5dev::OpCPU", %"class.std::shared_ptr.29" }
%"class.OpenColorIO_v2_5dev::OpCPU" = type { ptr }

; Function Attrs: mustprogress nounwind uwtable
define linkonce_odr hidden noundef ptr @_ZNKSt12__shared_ptrIKN19OpenColorIO_v2_5dev14ExponentOpDataELN9__gnu_cxx12_Lock_policyE2EE3getEv(ptr noundef nonnull align 8 dereferenceable(16) %0) #7 comdat align 2 {
  %2 = alloca ptr, align 8
  store ptr %0, ptr %2, align 8, !tbaa !104
  %3 = load ptr, ptr %2, align 8
  %4 = getelementptr inbounds nuw %"class.std::__shared_ptr.30", ptr %3, i32 0, i32 0
  %5 = load ptr, ptr %4, align 8, !tbaa !188
  ret ptr %5
}

; Function Attrs: mustprogress nounwind uwtable
define linkonce_odr hidden noundef ptr @_ZNKSt19__shared_ptr_accessIKN19OpenColorIO_v2_5dev14ExponentOpDataELN9__gnu_cxx12_Lock_policyE2ELb0ELb0EE6_M_getEv(ptr noundef nonnull align 1 dereferenceable(1) %0) #7 comdat align 2 {
  %2 = alloca ptr, align 8
  store ptr %0, ptr %2, align 8, !tbaa !92
  %3 = load ptr, ptr %2, align 8
  %4 = call noundef ptr @_ZNKSt12__shared_ptrIKN19OpenColorIO_v2_5dev14ExponentOpDataELN9__gnu_cxx12_Lock_policyE2EE3getEv(ptr noundef nonnull align 8 dereferenceable(16) %3) #3
  ret ptr %4
}

; Function Attrs: inlinehint mustprogress nounwind uwtable
define linkonce_odr noundef nonnull align 4 dereferenceable(4) ptr @_ZSt3maxIfERKT_S2_S2_(ptr noundef nonnull align 4 dereferenceable(4) %0, ptr noundef nonnull align 4 dereferenceable(4) %1) #9 comdat {
  %3 = alloca ptr, align 8
  %4 = alloca ptr, align 8
  %5 = alloca ptr, align 8
  store ptr %0, ptr %4, align 8, !tbaa !324
  store ptr %1, ptr %5, align 8, !tbaa !324
  %6 = load ptr, ptr %4, align 8, !tbaa !324
  %7 = load float, ptr %6, align 4, !tbaa !326
  %8 = load ptr, ptr %5, align 8, !tbaa !324
  %9 = load float, ptr %8, align 4, !tbaa !326
  %10 = fcmp olt float %7, %9
  br i1 %10, label %11, label %13

11:                                               ; preds = %2
  %12 = load ptr, ptr %5, align 8, !tbaa !324
  store ptr %12, ptr %3, align 8
  br label %15

13:                                               ; preds = %2
  %14 = load ptr, ptr %4, align 8, !tbaa !324
  store ptr %14, ptr %3, align 8
  br label %15

15:                                               ; preds = %13, %11
  %16 = load ptr, ptr %3, align 8
  ret ptr %16
}

; Function Attrs: mustprogress nounwind uwtable
define linkonce_odr hidden noundef ptr @_ZNKSt19__shared_ptr_accessIKN19OpenColorIO_v2_5dev14ExponentOpDataELN9__gnu_cxx12_Lock_policyE2ELb0ELb0EEptEv(ptr noundef nonnull align 1 dereferenceable(1) %0) #7 comdat align 2 {
  %2 = alloca ptr, align 8
  store ptr %0, ptr %2, align 8, !tbaa !92
  %3 = load ptr, ptr %2, align 8
  %4 = call noundef ptr @_ZNKSt19__shared_ptr_accessIKN19OpenColorIO_v2_5dev14ExponentOpDataELN9__gnu_cxx12_Lock_policyE2ELb0ELb0EE6_M_getEv(ptr noundef nonnull align 1 dereferenceable(1) %3) #3
  ret ptr %4
}

; Function Attrs: mustprogress uwtable
define internal void @_ZNK19OpenColorIO_v2_5dev12_GLOBAL__N_113ExponentOpCPU5applyEPKvPvl(ptr noundef nonnull align 8 dereferenceable(24) %0, ptr noundef %1, ptr noundef %2, i64 noundef %3) unnamed_addr #4 align 2 {
  %5 = alloca ptr, align 8
  %6 = alloca ptr, align 8
  %7 = alloca ptr, align 8
  %8 = alloca i64, align 8
  %9 = alloca ptr, align 8
  %10 = alloca ptr, align 8
  %11 = alloca [4 x float], align 16
  %12 = alloca i64, align 8
  %13 = alloca float, align 4
  %14 = alloca float, align 4
  %15 = alloca float, align 4
  %16 = alloca float, align 4
  store ptr %0, ptr %5, align 8, !tbaa !311
  store ptr %1, ptr %6, align 8, !tbaa !132
  store ptr %2, ptr %7, align 8, !tbaa !132
  store i64 %3, ptr %8, align 8, !tbaa !35
  %17 = load ptr, ptr %5, align 8
  call void @llvm.lifetime.start.p0(i64 8, ptr %9) #3
  %18 = load ptr, ptr %6, align 8, !tbaa !132
  store ptr %18, ptr %9, align 8, !tbaa !324
  call void @llvm.lifetime.start.p0(i64 8, ptr %10) #3
  %19 = load ptr, ptr %7, align 8, !tbaa !132
  store ptr %19, ptr %10, align 8, !tbaa !324
  call void @llvm.lifetime.start.p0(i64 16, ptr %11) #3
  %20 = getelementptr inbounds nuw %"class.OpenColorIO_v2_5dev::(anonymous namespace)::ExponentOpCPU", ptr %17, i32 0, i32 1
  %21 = call noundef ptr @_ZNKSt19__shared_ptr_accessIKN19OpenColorIO_v2_5dev14ExponentOpDataELN9__gnu_cxx12_Lock_policyE2ELb0ELb0EEptEv(ptr noundef nonnull align 1 dereferenceable(1) %20) #3
  %22 = getelementptr inbounds nuw %"class.OpenColorIO_v2_5dev::ExponentOpData", ptr %21, i32 0, i32 1
  %23 = getelementptr inbounds [4 x double], ptr %22, i64 0, i64 0
  %24 = load double, ptr %23, align 8, !tbaa !12
  %25 = fptrunc double %24 to float
  store float %25, ptr %11, align 4, !tbaa !326
  %26 = getelementptr inbounds float, ptr %11, i64 1
  %27 = getelementptr inbounds nuw %"class.OpenColorIO_v2_5dev::(anonymous namespace)::ExponentOpCPU", ptr %17, i32 0, i32 1
  %28 = call noundef ptr @_ZNKSt19__shared_ptr_accessIKN19OpenColorIO_v2_5dev14ExponentOpDataELN9__gnu_cxx12_Lock_policyE2ELb0ELb0EEptEv(ptr noundef nonnull align 1 dereferenceable(1) %27) #3
  %29 = getelementptr inbounds nuw %"class.OpenColorIO_v2_5dev::ExponentOpData", ptr %28, i32 0, i32 1
  %30 = getelementptr inbounds [4 x double], ptr %29, i64 0, i64 1
  %31 = load double, ptr %30, align 8, !tbaa !12
  %32 = fptrunc double %31 to float
  store float %32, ptr %26, align 4, !tbaa !326
  %33 = getelementptr inbounds float, ptr %11, i64 2
  %34 = getelementptr inbounds nuw %"class.OpenColorIO_v2_5dev::(anonymous namespace)::ExponentOpCPU", ptr %17, i32 0, i32 1
  %35 = call noundef ptr @_ZNKSt19__shared_ptr_accessIKN19OpenColorIO_v2_5dev14ExponentOpDataELN9__gnu_cxx12_Lock_policyE2ELb0ELb0EEptEv(ptr noundef nonnull align 1 dereferenceable(1) %34) #3
  %36 = getelementptr inbounds nuw %"class.OpenColorIO_v2_5dev::ExponentOpData", ptr %35, i32 0, i32 1
  %37 = getelementptr inbounds [4 x double], ptr %36, i64 0, i64 2
  %38 = load double, ptr %37, align 8, !tbaa !12
  %39 = fptrunc double %38 to float
  store float %39, ptr %33, align 4, !tbaa !326
  %40 = getelementptr inbounds float, ptr %11, i64 3
  %41 = getelementptr inbounds nuw %"class.OpenColorIO_v2_5dev::(anonymous namespace)::ExponentOpCPU", ptr %17, i32 0, i32 1
  %42 = call noundef ptr @_ZNKSt19__shared_ptr_accessIKN19OpenColorIO_v2_5dev14ExponentOpDataELN9__gnu_cxx12_Lock_policyE2ELb0ELb0EEptEv(ptr noundef nonnull align 1 dereferenceable(1) %41) #3
  %43 = getelementptr inbounds nuw %"class.OpenColorIO_v2_5dev::ExponentOpData", ptr %42, i32 0, i32 1
  %44 = getelementptr inbounds [4 x double], ptr %43, i64 0, i64 3
  %45 = load double, ptr %44, align 8, !tbaa !12
  %46 = fptrunc double %45 to float
  store float %46, ptr %40, align 4, !tbaa !326
  call void @llvm.lifetime.start.p0(i64 8, ptr %12) #3
  store i64 0, ptr %12, align 8, !tbaa !35
  br label %47

47:                                               ; preds = %93, %4
  %48 = load i64, ptr %12, align 8, !tbaa !35
  %49 = load i64, ptr %8, align 8, !tbaa !35
  %50 = icmp slt i64 %48, %49
  br i1 %50, label %52, label %51

51:                                               ; preds = %47
  call void @llvm.lifetime.end.p0(i64 8, ptr %12) #3
  br label %96

52:                                               ; preds = %47
  call void @llvm.lifetime.start.p0(i64 4, ptr %13) #3
  store float 0.000000e+00, ptr %13, align 4, !tbaa !326
  %53 = load ptr, ptr %9, align 8, !tbaa !324
  %54 = getelementptr inbounds float, ptr %53, i64 0
  %55 = call noundef nonnull align 4 dereferenceable(4) ptr @_ZSt3maxIfERKT_S2_S2_(ptr noundef nonnull align 4 dereferenceable(4) %13, ptr noundef nonnull align 4 dereferenceable(4) %54)
  %56 = load float, ptr %55, align 4, !tbaa !326
  %57 = getelementptr inbounds [4 x float], ptr %11, i64 0, i64 0
  %58 = load float, ptr %57, align 16, !tbaa !326
  %59 = call float @powf(float noundef %56, float noundef %58) #3, !tbaa !10
  %60 = load ptr, ptr %10, align 8, !tbaa !324
  %61 = getelementptr inbounds float, ptr %60, i64 0
  store float %59, ptr %61, align 4, !tbaa !326
  call void @llvm.lifetime.end.p0(i64 4, ptr %13) #3
  call void @llvm.lifetime.start.p0(i64 4, ptr %14) #3
  store float 0.000000e+00, ptr %14, align 4, !tbaa !326
  %62 = load ptr, ptr %9, align 8, !tbaa !324
  %63 = getelementptr inbounds float, ptr %62, i64 1
  %64 = call noundef nonnull align 4 dereferenceable(4) ptr @_ZSt3maxIfERKT_S2_S2_(ptr noundef nonnull align 4 dereferenceable(4) %14, ptr noundef nonnull align 4 dereferenceable(4) %63)
  %65 = load float, ptr %64, align 4, !tbaa !326
  %66 = getelementptr inbounds [4 x float], ptr %11, i64 0, i64 1
  %67 = load float, ptr %66, align 4, !tbaa !326
  %68 = call float @powf(float noundef %65, float noundef %67) #3, !tbaa !10
  %69 = load ptr, ptr %10, align 8, !tbaa !324
  %70 = getelementptr inbounds float, ptr %69, i64 1
  store float %68, ptr %70, align 4, !tbaa !326
  call void @llvm.lifetime.end.p0(i64 4, ptr %14) #3
  call void @llvm.lifetime.start.p0(i64 4, ptr %15) #3
  store float 0.000000e+00, ptr %15, align 4, !tbaa !326
  %71 = load ptr, ptr %9, align 8, !tbaa !324
  %72 = getelementptr inbounds float, ptr %71, i64 2
  %73 = call noundef nonnull align 4 dereferenceable(4) ptr @_ZSt3maxIfERKT_S2_S2_(ptr noundef nonnull align 4 dereferenceable(4) %15, ptr noundef nonnull align 4 dereferenceable(4) %72)
  %74 = load float, ptr %73, align 4, !tbaa !326
  %75 = getelementptr inbounds [4 x float], ptr %11, i64 0, i64 2
  %76 = load float, ptr %75, align 8, !tbaa !326
  %77 = call float @powf(float noundef %74, float noundef %76) #3, !tbaa !10
  %78 = load ptr, ptr %10, align 8, !tbaa !324
  %79 = getelementptr inbounds float, ptr %78, i64 2
  store float %77, ptr %79, align 4, !tbaa !326
  call void @llvm.lifetime.end.p0(i64 4, ptr %15) #3
  call void @llvm.lifetime.start.p0(i64 4, ptr %16) #3
  store float 0.000000e+00, ptr %16, align 4, !tbaa !326
  %80 = load ptr, ptr %9, align 8, !tbaa !324
  %81 = getelementptr inbounds float, ptr %80, i64 3
  %82 = call noundef nonnull align 4 dereferenceable(4) ptr @_ZSt3maxIfERKT_S2_S2_(ptr noundef nonnull align 4 dereferenceable(4) %16, ptr noundef nonnull align 4 dereferenceable(4) %81)
  %83 = load float, ptr %82, align 4, !tbaa !326
  %84 = getelementptr inbounds [4 x float], ptr %11, i64 0, i64 3
  %85 = load float, ptr %84, align 4, !tbaa !326
  %86 = call float @powf(float noundef %83, float noundef %85) #3, !tbaa !10
  %87 = load ptr, ptr %10, align 8, !tbaa !324
  %88 = getelementptr inbounds float, ptr %87, i64 3
  store float %86, ptr %88, align 4, !tbaa !326
  call void @llvm.lifetime.end.p0(i64 4, ptr %16) #3
  %89 = load ptr, ptr %9, align 8, !tbaa !324
  %90 = getelementptr inbounds float, ptr %89, i64 4
  store ptr %90, ptr %9, align 8, !tbaa !324
  %91 = load ptr, ptr %10, align 8, !tbaa !324
  %92 = getelementptr inbounds float, ptr %91, i64 4
  store ptr %92, ptr %10, align 8, !tbaa !324
  br label %93

93:                                               ; preds = %52
  %94 = load i64, ptr %12, align 8, !tbaa !35
  %95 = add nsw i64 %94, 1
  store i64 %95, ptr %12, align 8, !tbaa !35
  br label %47, !llvm.loop !328

96:                                               ; preds = %51
  call void @llvm.lifetime.end.p0(i64 16, ptr %11) #3
  call void @llvm.lifetime.end.p0(i64 8, ptr %10) #3
  call void @llvm.lifetime.end.p0(i64 8, ptr %9) #3
  ret void
}