; Function Attrs: mustprogress nofree nounwind memory(readwrite, inaccessiblemem: write) uwtable
define internal void @_ZNK19OpenColorIO_v2_5dev12_GLOBAL__N_113ExponentOpCPU5applyEPKvPvl(ptr noundef nonnull readonly align 8 captures(none) dereferenceable(24) %0, ptr noundef readonly captures(none) %1, ptr noundef writeonly captures(none) %2, i64 noundef %3) unnamed_addr #21 align 2 {
  %5 = getelementptr inbounds nuw i8, ptr %0, i64 8
  %6 = load ptr, ptr %5, align 8, !tbaa !91
  %7 = getelementptr inbounds nuw i8, ptr %6, i64 168
  %8 = load double, ptr %7, align 8, !tbaa !6
  %9 = fptrunc double %8 to float
  %10 = getelementptr inbounds nuw i8, ptr %6, i64 176
  %11 = load double, ptr %10, align 8, !tbaa !6
  %12 = fptrunc double %11 to float
  %13 = getelementptr inbounds nuw i8, ptr %6, i64 184
  %14 = load double, ptr %13, align 8, !tbaa !6
  %15 = fptrunc double %14 to float
  %16 = getelementptr inbounds nuw i8, ptr %6, i64 192
  %17 = load double, ptr %16, align 8, !tbaa !6
  %18 = fptrunc double %17 to float
  %19 = icmp sgt i64 %3, 0
  br i1 %19, label %.lr.ph, label %._crit_edge

._crit_edge:                                      ; preds = %.lr.ph, %4
  ret void

.lr.ph:                                           ; preds = %4, %.lr.ph
  %.034 = phi i64 [ %40, %.lr.ph ], [ 0, %4 ]
  %.01533 = phi ptr [ %38, %.lr.ph ], [ %1, %4 ]
  %.01632 = phi ptr [ %39, %.lr.ph ], [ %2, %4 ]
  %20 = load float, ptr %.01533, align 4, !tbaa !180
  %21 = fcmp ogt float %20, 0.000000e+00
  %.sroa.speculated29 = select i1 %21, float %20, float 0.000000e+00
  %22 = tail call float @powf(float noundef %.sroa.speculated29, float noundef %9) #26, !tbaa !52
  store float %22, ptr %.01632, align 4, !tbaa !180
  %23 = getelementptr inbounds nuw i8, ptr %.01533, i64 4
  %24 = load float, ptr %23, align 4, !tbaa !180
  %25 = fcmp ogt float %24, 0.000000e+00
  %.sroa.speculated25 = select i1 %25, float %24, float 0.000000e+00
  %26 = tail call float @powf(float noundef %.sroa.speculated25, float noundef %12) #26, !tbaa !52
  %27 = getelementptr inbounds nuw i8, ptr %.01632, i64 4
  store float %26, ptr %27, align 4, !tbaa !180
  %28 = getelementptr inbounds nuw i8, ptr %.01533, i64 8
  %29 = load float, ptr %28, align 4, !tbaa !180
  %30 = fcmp ogt float %29, 0.000000e+00
  %.sroa.speculated21 = select i1 %30, float %29, float 0.000000e+00
  %31 = tail call float @powf(float noundef %.sroa.speculated21, float noundef %15) #26, !tbaa !52
  %32 = getelementptr inbounds nuw i8, ptr %.01632, i64 8
  store float %31, ptr %32, align 4, !tbaa !180
  %33 = getelementptr inbounds nuw i8, ptr %.01533, i64 12
  %34 = load float, ptr %33, align 4, !tbaa !180
  %35 = fcmp ogt float %34, 0.000000e+00
  %.sroa.speculated = select i1 %35, float %34, float 0.000000e+00
  %36 = tail call float @powf(float noundef %.sroa.speculated, float noundef %18) #26, !tbaa !52
  %37 = getelementptr inbounds nuw i8, ptr %.01632, i64 12
  store float %36, ptr %37, align 4, !tbaa !180
  %38 = getelementptr inbounds nuw i8, ptr %.01533, i64 16
  %39 = getelementptr inbounds nuw i8, ptr %.01632, i64 16
  %40 = add nuw nsw i64 %.034, 1
  %exitcond.not = icmp eq i64 %40, %3
  br i1 %exitcond.not, label %._crit_edge, label %.lr.ph, !llvm.loop !182
}